; Function Attrs: nounwind uwtable
define internal void @print_log(ptr noundef %0, ptr noundef %1, ...) #1 {
  %3 = alloca [1 x %struct.__va_list_tag], align 16
  call void @llvm.lifetime.start.p0(i64 24, ptr nonnull %3) #14
  call void @llvm.va_start.p0(ptr nonnull %3)
  %.not = icmp eq ptr %1, null
  br i1 %.not, label %5, label %4

4:                                                ; preds = %2
  call void @av_vlog(ptr noundef %0, i32 noundef 32, ptr noundef nonnull %1, ptr noundef nonnull %3) #14
  br label %5

5:                                                ; preds = %4, %2
  call void @llvm.va_end.p0(ptr nonnull %3)
  call void @llvm.lifetime.end.p0(i64 24, ptr nonnull %3) #14
  ret void
}